; Function Attrs: mustprogress nounwind uwtable
define hidden void @_ZN8JVMCIEnv28VMIntrinsicMethod_initializeEPS_(ptr nocapture noundef nonnull readonly align 8 dereferenceable(64) %0, ptr noundef %1) local_unnamed_addr #0 align 2 {
  %3 = getelementptr inbounds i8, ptr %0, i64 24
  %4 = load i8, ptr %3, align 8
  %5 = trunc i8 %4 to i1
  br i1 %5, label %6, label %7

6:                                                ; preds = %2
  tail call void @_ZN12HotSpotJVMCI17VMIntrinsicMethod10initializeEP8JVMCIEnv(ptr noundef %1) #14
  br label %8

7:                                                ; preds = %2
  tail call void @_ZN8JNIJVMCI17VMIntrinsicMethod10initializeEP8JVMCIEnv(ptr noundef %1) #14
  br label %8

8:                                                ; preds = %7, %6
  %9 = tail call noundef zeroext i8 @_ZN8JVMCIEnv21has_pending_exceptionEv(ptr noundef nonnull align 8 dereferenceable(64) %1)
  ret void
}